Certificate:
    Data:
        Version: 3 (0x2)
        Serial Number: 4097 (0x1001)
        Signature Algorithm: sha256WithRSAEncryption
        Issuer: C=RU, ST=Moscow, L=Moscow, O=DevOrg, OU=PKI, CN=Dev Root CA
        Validity
            Not Before: Jan 25 16:20:56 2026 GMT
            Not After : May  2 16:20:56 2036 GMT
        Subject: CN=mtls-tun-client
        Subject Public Key Info:
            Public Key Algorithm: rsaEncryption
                Public-Key: (2048 bit)
                Modulus:
                    00:94:65:e0:ab:7d:73:cb:6d:d1:08:b6:15:ec:58:
                    48:2d:44:b6:92:42:94:64:0a:09:48:88:8d:27:db:
                    e8:74:68:83:3e:1f:f6:a9:b0:d0:9f:f8:14:e2:40:
                    e9:90:fb:8f:6a:dd:5c:2a:34:24:bd:4d:6b:c7:f9:
                    62:bb:d1:b2:ce:66:24:f3:07:37:da:dd:d8:f7:28:
                    fe:fc:52:da:85:ea:c3:a5:fa:da:ec:c5:2d:85:9b:
                    24:a8:47:0b:c1:ad:41:52:9b:86:39:b1:8c:83:2a:
                    0b:c9:30:87:e0:2c:10:b1:90:c0:97:20:2d:ac:ca:
                    08:bf:65:09:7a:48:5e:1c:81:ae:ed:e6:13:ce:a0:
                    ca:46:4d:75:78:44:74:6e:c3:04:d6:d0:08:74:b6:
                    01:48:b0:4c:ec:bb:72:4f:fa:75:52:55:77:10:75:
                    d0:ca:ff:5d:c7:9b:b4:51:57:6d:02:00:b4:b3:89:
                    05:04:de:05:02:96:a6:78:e9:ac:f8:5d:64:be:a2:
                    74:2b:f9:04:06:06:65:46:ae:4f:11:ac:62:e7:9b:
                    14:aa:fb:a6:d9:42:67:01:f7:35:91:59:32:83:ff:
                    63:b5:6f:26:c7:f6:44:64:86:de:28:7e:76:e9:65:
                    cf:6a:da:06:36:4c:46:47:5b:c6:62:39:6b:f2:d6:
                    80:6b
                Exponent: 65537 (0x10001)
        X509v3 extensions:
            X509v3 Basic Constraints: 
                CA:FALSE
            X509v3 Key Usage: critical
                Digital Signature
            X509v3 Extended Key Usage: 
                TLS Web Client Authentication
            X509v3 Subject Key Identifier: 
                A5:C2:3B:84:BB:0D:3A:EE:94:0C:FF:A0:EB:A5:70:64:00:F0:57:96
            X509v3 Authority Key Identifier: 
                D6:C5:AC:A0:18:1E:84:F0:44:4A:90:12:47:D0:36:5B:1E:90:40:4A
    Signature Algorithm: sha256WithRSAEncryption
    Signature Value:
        53:be:d9:37:ad:e8:c1:54:ce:39:dd:8a:9c:91:1d:0c:eb:12:
        a3:47:2e:90:a3:90:92:69:bf:3e:dd:fc:fa:0e:ad:62:d8:ae:
        84:b3:00:29:5d:d9:54:ae:5d:1a:c5:11:1f:35:14:89:1a:33:
        d1:02:33:67:b0:f2:68:d4:3b:d4:2d:4f:19:22:dc:fe:4a:9b:
        cf:95:ef:39:b9:a3:02:63:bb:e7:1f:bb:4e:1a:78:e6:d8:5a:
        64:66:40:16:a0:62:fe:1e:38:3b:e2:fe:de:59:8d:8c:11:6c:
        bb:4d:9d:e6:13:3f:a7:a3:05:f9:7a:5a:5a:9a:02:20:40:72:
        0f:d6:b9:88:bf:cb:7c:21:bb:62:26:82:6e:ba:ef:61:a7:61:
        e3:90:34:76:bc:df:25:10:99:65:66:7e:ea:6f:4f:cb:ea:72:
        37:37:2f:b8:c6:93:7c:8b:a0:6f:e1:bb:a7:b9:82:e3:74:b3:
        0d:84:1d:b4:8d:f6:eb:5a:ca:21:c3:db:8e:3b:01:ca:1e:d2:
        65:8b:ff:55:30:03:6f:ba:e4:dc:4e:e3:89:fa:8b:89:20:5d:
        99:d7:9c:9c:b6:a7:45:05:38:11:e2:05:66:22:e0:e1:c8:97:
        22:38:0b:bc:f3:96:61:3a:37:96:1c:b4:d5:4c:bf:62:84:c6:
        3a:62:9b:4b:0e:f5:4c:d3:b5:8c:72:85:97:d4:7f:f7:8e:04:
        88:aa:ef:16:c1:a9:ec:9b:f0:9f:c9:a3:b5:03:7b:b5:e9:ff:
        22:11:57:2e:bb:51:76:3d:df:bc:1b:8b:05:43:35:5b:c4:9b:
        f7:39:ab:57:d2:36:96:e7:4b:16:c0:3b:fc:0a:6d:dd:c9:05:
        3d:7c:62:ae:f8:b8:47:80:74:70:75:f6:50:14:70:20:71:59:
        84:47:04:ae:e6:d9:94:b4:99:9e:62:62:a8:af:c4:b9:cb:6b:
        6f:bc:e9:f0:39:58:3b:cb:67:2a:82:7e:ff:97:38:99:5d:ca:
        d4:eb:90:bc:ee:0a:ba:53:c7:29:86:43:28:7a:9c:c9:06:56:
        17:6b:fe:31:91:93:0a:ee:31:94:ce:6c:c4:08:66:2c:e7:7a:
        3e:67:43:f2:e0:6b:2e:c0:63:04:75:ec:5c:f2:2a:f4:0c:b7:
        0a:03:48:f9:52:89:ca:af:37:84:90:ae:c9:ca:67:8c:b4:d4:
        00:d0:29:d6:ee:c3:04:07:74:37:b4:f8:18:55:1b:7a:4d:1d:
        88:88:9e:36:05:6e:1a:27:4c:6a:a1:73:c8:ed:fa:11:65:cc:
        24:75:ba:9e:2e:10:df:97:f7:7a:87:45:58:80:8d:e6:14:11:
        f8:a7:7c:2c:4a:07:2b:aa
-----BEGIN CERTIFICATE-----
MIIEbDCCAlSgAwIBAgICEAEwDQYJKoZIhvcNAQELBQAwZDELMAkGA1UEBhMCUlUx
DzANBgNVBAgMBk1vc2NvdzEPMA0GA1UEBwwGTW9zY293MQ8wDQYDVQQKDAZEZXZP
cmcxDDAKBgNVBAsMA1BLSTEUMBIGA1UEAwwLRGV2IFJvb3QgQ0EwHhcNMjYwMTI1
MTYyMDU2WhcNMzYwNTAyMTYyMDU2WjAaMRgwFgYDVQQDDA9tdGxzLXR1bi1jbGll
bnQwggEiMA0GCSqGSIb3DQEBAQUAA4IBDwAwggEKAoIBAQCUZeCrfXPLbdEIthXs
WEgtRLaSQpRkCglIiI0n2+h0aIM+H/apsNCf+BTiQOmQ+49q3VwqNCS9TWvH+WK7
0bLOZiTzBzfa3dj3KP78UtqF6sOl+trsxS2FmySoRwvBrUFSm4Y5sYyDKgvJMIfg
LBCxkMCXIC2sygi/ZQl6SF4cga7t5hPOoMpGTXV4RHRuwwTW0Ah0tgFIsEzsu3JP
+nVSVXcQddDK/13Hm7RRV20CALSziQUE3gUClqZ46az4XWS+onQr+QQGBmVGrk8R
rGLnmxSq+6bZQmcB9zWRWTKD/2O1bybH9kRkht4ofnbpZc9q2gY2TEZHW8ZiOWvy
1oBrAgMBAAGjcjBwMAkGA1UdEwQCMAAwDgYDVR0PAQH/BAQDAgeAMBMGA1UdJQQM
MAoGCCsGAQUFBwMCMB0GA1UdDgQWBBSlwjuEuw067pQM/6DrpXBkAPBXljAfBgNV
HSMEGDAWgBTWxaygGB6E8ERKkBJH0DZbHpBASjANBgkqhkiG9w0BAQsFAAOCAgEA
U77ZN63owVTOOd2KnJEdDOsSo0cukKOQkmm/Pt38+g6tYtiuhLMAKV3ZVK5dGsUR
HzUUiRoz0QIzZ7DyaNQ71C1PGSLc/kqbz5XvObmjAmO75x+7Thp45thaZGZAFqBi
/h44O+L+3lmNjBFsu02d5hM/p6MF+XpaWpoCIEByD9a5iL/LfCG7YiaCbrrvYadh
45A0drzfJRCZZWZ+6m9Py+pyNzcvuMaTfIugb+G7p7mC43SzDYQdtI3261rKIcPb
jjsByh7SZYv/VTADb7rk3E7jifqLiSBdmdecnLanRQU4EeIFZiLg4ciXIjgLvPOW
YTo3lhy01Uy/YoTGOmKbSw71TNO1jHKFl9R/944EiKrvFsGp7Jvwn8mjtQN7ten/
IhFXLrtRdj3fvBuLBUM1W8Sb9zmrV9I2ludLFsA7/Apt3ckFPXxirvi4R4B0cHX2
UBRwIHFZhEcErubZlLSZnmJiqK/Euctrb7zp8DlYO8tnKoJ+/5c4mV3K1OuQvO4K
ulPHKYZDKHqcyQZWF2v+MZGTCu4xlM5sxAhmLOd6PmdD8uBrLsBjBHXsXPIq9Ay3
CgNI+VKJyq83hJCuycpnjLTUANAp1u7DBAd0N7T4GFUbek0diIieNgVuGidMaqFz
yO36EWXMJHW6ni4Q35f3eodFWICN5hQR+Kd8LEoHK6o=
-----END CERTIFICATE-----
