Certificate:
    Data:
        Version: 3 (0x2)
        Serial Number: 4097 (0x1001)
        Signature Algorithm: sha256WithRSAEncryption
        Issuer: C=RU, ST=Moscow, L=Moscow, O=DevOrg, OU=PKI, CN=Test Root CA
        Validity
            Not Before: Feb 11 09:13:29 2026 GMT
            Not After : Apr  1 09:13:29 2031 GMT
        Subject: CN=test-service-client
        Subject Public Key Info:
            Public Key Algorithm: rsaEncryption
                Public-Key: (2048 bit)
                Modulus:
                    00:c1:68:b1:7c:95:18:5a:7a:47:2a:52:39:c5:c1:
                    42:85:5a:d9:c5:ac:11:94:95:b6:96:ea:67:c2:42:
                    93:c5:30:4e:07:60:b2:b2:26:01:fc:c2:95:9a:fa:
                    f8:94:26:9d:f9:95:c0:be:57:54:87:c7:26:43:2e:
                    a7:8f:4a:bc:10:00:88:27:98:6d:7a:c2:87:de:1e:
                    02:2d:c5:8f:57:16:11:69:89:8e:79:d8:f2:60:d6:
                    f9:6f:8f:8d:e0:4d:5a:b5:2a:2f:d3:33:6a:12:10:
                    2f:d6:27:e1:45:2d:f1:b1:34:d2:96:5e:66:4c:fa:
                    53:e9:14:20:18:80:a6:1c:07:a4:64:02:60:98:eb:
                    f0:6d:fd:93:1d:3c:6a:50:8e:4a:b6:79:8c:d2:cb:
                    f9:1a:4f:de:4b:33:42:17:d0:9a:5b:7a:78:36:12:
                    c2:be:33:c0:d0:c0:5c:93:b1:b3:68:96:29:14:91:
                    fe:3b:03:78:6c:77:7b:18:32:38:86:6d:ca:4a:2a:
                    be:fd:96:83:b2:95:7b:33:d6:f9:fa:98:68:1e:0b:
                    8f:ed:a2:76:f0:25:51:23:ae:2e:29:b4:84:2a:43:
                    2c:48:9c:fa:17:d0:2a:90:7f:96:7a:ff:17:39:6b:
                    2a:86:8f:e8:54:75:61:1e:eb:e2:73:f2:f9:bb:0e:
                    10:4b
                Exponent: 65537 (0x10001)
        X509v3 extensions:
            X509v3 Basic Constraints: 
                CA:FALSE
            X509v3 Key Usage: critical
                Digital Signature
            X509v3 Extended Key Usage: 
                TLS Web Client Authentication
            X509v3 Subject Key Identifier: 
                F9:83:C9:3D:2E:04:1B:5F:36:64:3A:91:B4:70:1F:53:09:52:A4:E2
            X509v3 Authority Key Identifier: 
                37:67:A6:41:32:A2:C4:3B:13:DD:F2:91:86:D0:EF:66:DA:96:CE:36
    Signature Algorithm: sha256WithRSAEncryption
    Signature Value:
        a0:08:7f:2b:47:d0:6c:d5:86:d4:d3:2d:18:9a:d3:01:32:74:
        4d:e4:bc:46:c1:13:1f:3c:e3:7b:cd:43:28:0d:52:0b:46:4c:
        08:b8:70:f7:31:09:39:2b:55:19:d9:a3:0f:7d:e6:4b:4a:40:
        9a:4d:59:a9:62:d9:4d:fe:75:bb:96:e4:59:11:0d:72:80:20:
        aa:5f:44:e6:4f:02:50:15:0c:20:88:e4:82:95:79:cd:ad:89:
        3d:ed:de:86:c3:af:11:0b:37:95:96:4d:2d:25:0a:3e:57:49:
        69:79:b0:ea:4c:60:29:eb:30:fd:4a:b0:cd:95:1b:0f:e5:1c:
        e2:5a:f4:be:d9:7b:a1:64:3a:d2:05:82:de:22:83:07:18:31:
        fb:67:22:81:a1:60:0b:86:31:1d:f3:3a:a9:9d:24:f0:6b:8f:
        81:e6:87:b2:47:be:d9:d7:40:b7:fc:c5:bf:40:20:2c:2d:56:
        55:52:b1:ec:88:c9:26:77:a7:8a:f4:88:6d:29:29:b9:73:5a:
        c6:aa:8b:58:32:0b:20:41:30:ba:8e:c9:65:da:c2:e9:44:d7:
        52:e6:ed:f2:39:38:00:55:05:84:f7:df:0b:96:0e:dc:4c:ee:
        62:aa:6e:17:9a:70:6d:5d:b0:98:82:7a:d2:d7:65:eb:c0:eb:
        4a:58:60:4a:c7:3a:9b:a5:2a:05:11:71:00:ca:de:08:77:c8:
        77:7b:eb:bd:5e:ce:28:b9:be:c3:db:30:9b:37:4f:7c:c7:26:
        db:2e:bd:7c:1d:7b:42:0e:a0:83:a2:7f:9d:0c:cb:f1:aa:e4:
        36:03:b9:a7:01:d0:e3:24:e5:d1:ae:6e:49:41:a8:82:62:7e:
        34:4c:1c:01:db:99:10:0c:9d:2d:06:27:c9:31:fa:e0:c0:74:
        82:d7:6e:f1:b0:4a:c9:e4:08:1a:57:5e:b3:a5:65:5c:ea:db:
        b2:7a:5d:35:22:e0:af:ee:c7:d1:95:85:7d:cf:56:67:85:48:
        b7:ee:fe:29:12:b8:c0:62:84:59:8b:7e:a1:83:39:31:8f:f6:
        32:94:13:86:e5:79:27:7d:7a:3a:26:c7:75:45:aa:27:14:bb:
        4d:e2:c4:63:e4:d7:11:4f:db:5d:02:25:2f:bd:10:90:fc:f8:
        74:37:98:89:41:30:b2:5b:e2:0b:cb:cc:27:d4:84:3c:71:0b:
        d4:1f:e9:1d:02:bd:ec:4e:5c:79:cb:f7:39:da:17:8a:26:8b:
        47:b8:0f:85:ea:08:61:d7:ff:25:3f:23:4a:cd:f3:12:c9:0a:
        05:59:e7:48:4d:8f:90:01:82:82:a4:8d:f9:34:d0:de:ce:02:
        45:ba:63:3a:e2:1a:db:64
-----BEGIN CERTIFICATE-----
MIIEcTCCAlmgAwIBAgICEAEwDQYJKoZIhvcNAQELBQAwZTELMAkGA1UEBhMCUlUx
DzANBgNVBAgMBk1vc2NvdzEPMA0GA1UEBwwGTW9zY293MQ8wDQYDVQQKDAZEZXZP
cmcxDDAKBgNVBAsMA1BLSTEVMBMGA1UEAwwMVGVzdCBSb290IENBMB4XDTI2MDIx
MTA5MTMyOVoXDTMxMDQwMTA5MTMyOVowHjEcMBoGA1UEAwwTdGVzdC1zZXJ2aWNl
LWNsaWVudDCCASIwDQYJKoZIhvcNAQEBBQADggEPADCCAQoCggEBAMFosXyVGFp6
RypSOcXBQoVa2cWsEZSVtpbqZ8JCk8UwTgdgsrImAfzClZr6+JQmnfmVwL5XVIfH
JkMup49KvBAAiCeYbXrCh94eAi3Fj1cWEWmJjnnY8mDW+W+PjeBNWrUqL9MzahIQ
L9Yn4UUt8bE00pZeZkz6U+kUIBiAphwHpGQCYJjr8G39kx08alCOSrZ5jNLL+RpP
3kszQhfQmlt6eDYSwr4zwNDAXJOxs2iWKRSR/jsDeGx3exgyOIZtykoqvv2Wg7KV
ezPW+fqYaB4Lj+2idvAlUSOuLim0hCpDLEic+hfQKpB/lnr/FzlrKoaP6FR1YR7r
4nPy+bsOEEsCAwEAAaNyMHAwCQYDVR0TBAIwADAOBgNVHQ8BAf8EBAMCB4AwEwYD
VR0lBAwwCgYIKwYBBQUHAwIwHQYDVR0OBBYEFPmDyT0uBBtfNmQ6kbRwH1MJUqTi
MB8GA1UdIwQYMBaAFDdnpkEyosQ7E93ykYbQ72bals42MA0GCSqGSIb3DQEBCwUA
A4ICAQCgCH8rR9Bs1YbU0y0YmtMBMnRN5LxGwRMfPON7zUMoDVILRkwIuHD3MQk5
K1UZ2aMPfeZLSkCaTVmpYtlN/nW7luRZEQ1ygCCqX0TmTwJQFQwgiOSClXnNrYk9
7d6Gw68RCzeVlk0tJQo+V0lpebDqTGAp6zD9SrDNlRsP5RziWvS+2XuhZDrSBYLe
IoMHGDH7ZyKBoWALhjEd8zqpnSTwa4+B5oeyR77Z10C3/MW/QCAsLVZVUrHsiMkm
d6eK9IhtKSm5c1rGqotYMgsgQTC6jsll2sLpRNdS5u3yOTgAVQWE998Llg7cTO5i
qm4XmnBtXbCYgnrS12XrwOtKWGBKxzqbpSoFEXEAyt4Id8h3e+u9Xs4oub7D2zCb
N098xybbLr18HXtCDqCDon+dDMvxquQ2A7mnAdDjJOXRrm5JQaiCYn40TBwB25kQ
DJ0tBifJMfrgwHSC127xsErJ5AgaV16zpWVc6tuyel01IuCv7sfRlYV9z1ZnhUi3
7v4pErjAYoRZi36hgzkxj/YylBOG5XknfXo6Jsd1RaonFLtN4sRj5NcRT9tdAiUv
vRCQ/Ph0N5iJQTCyW+ILy8wn1IQ8cQvUH+kdAr3sTlx5y/c52heKJotHuA+F6ghh
1/8lPyNKzfMSyQoFWedITY+QAYKCpI35NNDezgJFumM64hrbZA==
-----END CERTIFICATE-----
